; Function Attrs: nounwind uwtable
define void @dtgtk_expander_set_drag_hover(ptr noundef %0, i32 noundef %1, i32 noundef %2, i32 noundef %3) local_unnamed_addr #0 {
  %.not = icmp eq ptr %0, null
  br i1 %.not, label %8, label %5

5:                                                ; preds = %4
  %6 = tail call i64 @gtk_widget_get_type() #11
  %7 = tail call ptr @g_type_check_instance_cast(ptr noundef nonnull %0, i64 noundef %6) #10
  br label %10

8:                                                ; preds = %4
  %9 = load ptr, ptr @_drop_widget, align 8, !tbaa !34
  br label %10

10:                                               ; preds = %8, %5
  %11 = phi ptr [ %7, %5 ], [ %9, %8 ]
  %.not21 = icmp eq ptr %11, null
  br i1 %.not21, label %24, label %12

12:                                               ; preds = %10
  %.not22 = icmp eq i32 %1, 0
  %.not23 = icmp eq i32 %2, 0
  %13 = or i32 %2, %1
  %or.cond.not = icmp eq i32 %13, 0
  %14 = load ptr, ptr @_drop_widget, align 8
  %15 = icmp eq ptr %11, %14
  %or.cond = select i1 %or.cond.not, i1 %15, i1 false
  %16 = load i32, ptr @dtgtk_expander_set_drag_hover.last_time, align 4
  %17 = icmp eq i32 %3, %16
  %or.cond26 = select i1 %or.cond, i1 %17, i1 false
  br i1 %or.cond26, label %24, label %18

18:                                               ; preds = %12
  tail call void @dt_gui_remove_class(ptr noundef nonnull %11, ptr noundef nonnull @.str.2) #10
  tail call void @dt_gui_remove_class(ptr noundef nonnull %11, ptr noundef nonnull @.str.3) #10
  br i1 %or.cond.not, label %24, label %19

19:                                               ; preds = %18
  store ptr %11, ptr @_drop_widget, align 8, !tbaa !34
  store ptr null, ptr @_last_expanded, align 8, !tbaa !34
  store i32 %3, ptr @dtgtk_expander_set_drag_hover.last_time, align 4, !tbaa !37
  br i1 %.not22, label %20, label %21

20:                                               ; preds = %19
  tail call void @gtk_widget_queue_resize(ptr noundef nonnull %11) #10
  br label %24

21:                                               ; preds = %19
  br i1 %.not23, label %23, label %22

22:                                               ; preds = %21
  tail call void @dt_gui_add_class(ptr noundef nonnull %11, ptr noundef nonnull @.str.3) #10
  br label %24

23:                                               ; preds = %21
  tail call void @dt_gui_add_class(ptr noundef nonnull %11, ptr noundef nonnull @.str.2) #10
  br label %24

24:                                               ; preds = %18, %22, %23, %20, %10, %12
  ret void
}